target datalayout = "e-m:e-p270:32:32-p271:32:32-p272:64:64-i64:64-i128:128-f80:128-n8:16:32:64-S128"
target triple = "x86_64-pc-linux-gnu"

%class.cmUVProcessChainBuilder = type { %"struct.std::array", %"class.std::vector", %"class.std::__cxx11::basic_string", i8, ptr }
%"struct.std::array" = type { [3 x %"struct.cmUVProcessChainBuilder::StdioConfiguration"] }
%"struct.cmUVProcessChainBuilder::StdioConfiguration" = type { i32, i32 }
%"class.std::vector" = type { %"struct.std::_Vector_base" }
%"struct.std::_Vector_base" = type { %"struct.std::_Vector_base<cmUVProcessChainBuilder::ProcessConfiguration, std::allocator<cmUVProcessChainBuilder::ProcessConfiguration>>::_Vector_impl" }
%"struct.std::_Vector_base<cmUVProcessChainBuilder::ProcessConfiguration, std::allocator<cmUVProcessChainBuilder::ProcessConfiguration>>::_Vector_impl" = type { %"struct.std::_Vector_base<cmUVProcessChainBuilder::ProcessConfiguration, std::allocator<cmUVProcessChainBuilder::ProcessConfiguration>>::_Vector_impl_data" }
%"struct.std::_Vector_base<cmUVProcessChainBuilder::ProcessConfiguration, std::allocator<cmUVProcessChainBuilder::ProcessConfiguration>>::_Vector_impl_data" = type { ptr, ptr, ptr }
%"class.std::__cxx11::basic_string" = type { %"struct.std::__cxx11::basic_string<char>::_Alloc_hider", i64, %union.anon }
%"struct.std::__cxx11::basic_string<char>::_Alloc_hider" = type { ptr }
%union.anon = type { i64, [8 x i8] }

; Function Attrs: mustprogress nounwind uwtable
define linkonce_odr dso_local noundef nonnull align 4 dereferenceable(8) ptr @_ZNSt14__array_traitsIN23cmUVProcessChainBuilder18StdioConfigurationELm3EE6_S_refERA3_KS1_m(ptr noundef nonnull align 4 dereferenceable(24) %0, i64 noundef %1) #0 comdat align 2 {
  %3 = alloca ptr, align 8
  %4 = alloca i64, align 8
  store ptr %0, ptr %3, align 8
  store i64 %1, ptr %4, align 8
  %5 = load ptr, ptr %3, align 8
  %6 = load i64, ptr %4, align 8
  %7 = getelementptr inbounds [3 x %"struct.cmUVProcessChainBuilder::StdioConfiguration"], ptr %5, i64 0, i64 %6
  ret ptr %7
}

; Function Attrs: mustprogress nounwind uwtable
define linkonce_odr dso_local noundef nonnull align 4 dereferenceable(8) ptr @_ZNSt5arrayIN23cmUVProcessChainBuilder18StdioConfigurationELm3EEixEm(ptr noundef nonnull align 4 dereferenceable(24) %0, i64 noundef %1) #0 comdat align 2 {
  %3 = alloca ptr, align 8
  %4 = alloca i64, align 8
  store ptr %0, ptr %3, align 8
  store i64 %1, ptr %4, align 8
  %5 = load ptr, ptr %3, align 8
  %6 = getelementptr inbounds %"struct.std::array", ptr %5, i32 0, i32 0
  %7 = load i64, ptr %4, align 8
  %8 = call noundef nonnull align 4 dereferenceable(8) ptr @_ZNSt14__array_traitsIN23cmUVProcessChainBuilder18StdioConfigurationELm3EE6_S_refERA3_KS1_m(ptr noundef nonnull align 4 dereferenceable(24) %6, i64 noundef %7) #12
  ret ptr %8
}

; Function Attrs: mustprogress nounwind uwtable
define dso_local noundef nonnull align 8 dereferenceable(96) ptr @_ZN23cmUVProcessChainBuilder17SetExternalStreamENS_6StreamEi(ptr noundef nonnull align 8 dereferenceable(96) %0, i32 noundef %1, i32 noundef %2) #0 align 2 {
  %4 = alloca ptr, align 8
  %5 = alloca i32, align 4
  %6 = alloca i32, align 4
  %7 = alloca ptr, align 8
  store ptr %0, ptr %4, align 8
  store i32 %1, ptr %5, align 4
  store i32 %2, ptr %6, align 4
  %8 = load ptr, ptr %4, align 8
  %9 = load i32, ptr %5, align 4
  switch i32 %9, label %20 [
    i32 0, label %10
    i32 1, label %10
    i32 2, label %10
  ]

10:                                               ; preds = %3, %3, %3
  %11 = getelementptr inbounds %class.cmUVProcessChainBuilder, ptr %8, i32 0, i32 0
  %12 = load i32, ptr %5, align 4
  %13 = zext i32 %12 to i64
  %14 = call noundef nonnull align 4 dereferenceable(8) ptr @_ZNSt5arrayIN23cmUVProcessChainBuilder18StdioConfigurationELm3EEixEm(ptr noundef nonnull align 4 dereferenceable(24) %11, i64 noundef %13) #12
  store ptr %14, ptr %7, align 8
  %15 = load ptr, ptr %7, align 8
  %16 = getelementptr inbounds %"struct.cmUVProcessChainBuilder::StdioConfiguration", ptr %15, i32 0, i32 0
  store i32 2, ptr %16, align 4
  %17 = load i32, ptr %6, align 4
  %18 = load ptr, ptr %7, align 8
  %19 = getelementptr inbounds %"struct.cmUVProcessChainBuilder::StdioConfiguration", ptr %18, i32 0, i32 1
  store i32 %17, ptr %19, align 4
  br label %20

20:                                               ; preds = %10, %3
  ret ptr %8
}