; Function Attrs: mustprogress nofree norecurse nosync nounwind willreturn memory(argmem: write) uwtable
define dso_local noundef nonnull align 8 dereferenceable(96) ptr @_ZN23cmUVProcessChainBuilder17SetExternalStreamENS_6StreamEi(ptr noundef nonnull returned writeonly align 8 dereferenceable(96) %0, i32 noundef %1, i32 noundef %2) local_unnamed_addr #3 align 2 {
  %switch = icmp ult i32 %1, 3
  br i1 %switch, label %4, label %8

4:                                                ; preds = %3
  %5 = zext nneg i32 %1 to i64
  %6 = getelementptr inbounds nuw [3 x %"struct.cmUVProcessChainBuilder::StdioConfiguration"], ptr %0, i64 0, i64 %5
  store i32 2, ptr %6, align 8
  %7 = getelementptr inbounds nuw i8, ptr %6, i64 4
  store i32 %2, ptr %7, align 4
  br label %8

8:                                                ; preds = %3, %4
  ret ptr %0
}